; Function Attrs: mustprogress uwtable
define hidden void @_ZN4cvc58internal6theory11quantifiers12OracleEngineC2ERNS0_3EnvERNS2_16QuantifiersStateERNS2_27QuantifiersInferenceManagerERNS2_19QuantifiersRegistryERNS2_12TermRegistryE(ptr noundef nonnull align 8 dereferenceable(137) %this, ptr noundef nonnull align 8 dereferenceable(576) %env, ptr noundef nonnull align 8 dereferenceable(248) %qs, ptr noundef nonnull align 8 dereferenceable(376) %qim, ptr noundef nonnull align 8 dereferenceable(488) %qr, ptr noundef nonnull align 8 dereferenceable(208) %tr) unnamed_addr #3 align 2 personality ptr @__gxx_personality_v0 {
entry:
  tail call void @_ZN4cvc58internal6theory17QuantifiersModuleC2ERNS0_3EnvERNS1_11quantifiers16QuantifiersStateERNS5_27QuantifiersInferenceManagerERNS5_19QuantifiersRegistryERNS5_12TermRegistryE(ptr noundef nonnull align 8 dereferenceable(48) %this, ptr noundef nonnull align 8 dereferenceable(576) %env, ptr noundef nonnull align 8 dereferenceable(248) %qs, ptr noundef nonnull align 8 dereferenceable(376) %qim, ptr noundef nonnull align 8 dereferenceable(488) %qr, ptr noundef nonnull align 8 dereferenceable(208) %tr)
  store ptr getelementptr inbounds ({ [16 x ptr] }, ptr @_ZTVN4cvc58internal6theory11quantifiers12OracleEngineE, i64 0, i32 0, i64 2), ptr %this, align 8
  %d_oracleFuns = getelementptr inbounds i8, ptr %this, i64 48
  %call = tail call noundef ptr @_ZNK4cvc58internal6EnvObj11userContextEv(ptr noundef nonnull align 8 dereferenceable(16) %this)
  tail call void @_ZN4cvc57context10ContextObjC2EPNS0_7ContextE(ptr noundef nonnull align 8 dereferenceable(40) %d_oracleFuns, ptr noundef %call)
  store ptr getelementptr inbounds ({ [6 x ptr] }, ptr @_ZTVN4cvc57context6CDListINS_8internal12NodeTemplateILb1EEENS0_14DefaultCleanUpIS4_EESaIS4_EEE, i64 0, i32 0, i64 2), ptr %d_oracleFuns, align 8
  %d_list.i = getelementptr inbounds i8, ptr %this, i64 88
  %d_callCleanup.i = getelementptr inbounds i8, ptr %this, i64 120
  tail call void @llvm.memset.p0.i64(ptr noundef nonnull align 8 dereferenceable(32) %d_list.i, i8 0, i64 32, i1 false)
  store i8 1, ptr %d_callCleanup.i, align 8
  %call5 = invoke noundef ptr @_ZNK4cvc58internal6theory11quantifiers12TermRegistry16getOracleCheckerEv(ptr noundef nonnull align 8 dereferenceable(208) %tr)
          to label %invoke.cont4 unwind label %lpad3

invoke.cont4:                                     ; preds = %entry
  %d_ochecker = getelementptr inbounds i8, ptr %this, i64 128
  store ptr %call5, ptr %d_ochecker, align 8
  %d_consistencyCheckPassed = getelementptr inbounds i8, ptr %this, i64 136
  store i8 0, ptr %d_consistencyCheckPassed, align 8
  ret void

lpad3:                                            ; preds = %entry
  %0 = landingpad { ptr, i32 }
          cleanup
  tail call void @_ZN4cvc57context6CDListINS_8internal12NodeTemplateILb1EEENS0_14DefaultCleanUpIS4_EESaIS4_EED2Ev(ptr noundef nonnull align 8 dereferenceable(74) %d_oracleFuns) #19
  resume { ptr, i32 } %0
}